; Function Attrs: nounwind uwtable
define internal ptr @kdf_pbkdf2_new(ptr noundef %0) #0 {
  %2 = alloca [2 x %struct.ossl_param_st], align 16
  %3 = tail call i32 @ossl_prov_is_running() #7
  %.not.i = icmp eq i32 %3, 0
  br i1 %.not.i, label %kdf_pbkdf2_new_no_init.exit.thread, label %4

4:                                                ; preds = %1
  %5 = tail call noalias ptr @CRYPTO_zalloc(i64 noundef 80, ptr noundef nonnull @.str, i32 noundef 76) #7
  %6 = icmp eq ptr %5, null
  br i1 %6, label %kdf_pbkdf2_new_no_init.exit.thread, label %7

7:                                                ; preds = %4
  store ptr %0, ptr %5, align 8, !tbaa !3
  call void @llvm.lifetime.start.p0(i64 80, ptr nonnull %2) #7
  %8 = tail call ptr @ossl_prov_ctx_get0_libctx(ptr noundef %0) #7
  call void @OSSL_PARAM_construct_utf8_string(ptr dead_on_unwind nonnull writable sret(%struct.ossl_param_st) align 8 %2, ptr noundef nonnull @.str.1, ptr noundef nonnull @.str.2, i64 noundef 0) #7
  %9 = getelementptr inbounds nuw i8, ptr %2, i64 40
  call void @llvm.memset.p0.i64(ptr noundef nonnull align 8 dereferenceable(40) %9, i8 0, i64 40, i1 false)
  %10 = getelementptr inbounds nuw i8, ptr %5, i64 48
  %11 = call i32 @ossl_prov_digest_load_from_params(ptr noundef nonnull %10, ptr noundef nonnull %2, ptr noundef %8) #7
  %.not.i4 = icmp eq i32 %11, 0
  br i1 %.not.i4, label %12, label %kdf_pbkdf2_init.exit

12:                                               ; preds = %7
  call void @ossl_prov_digest_reset(ptr noundef nonnull %10) #7
  br label %kdf_pbkdf2_init.exit

kdf_pbkdf2_init.exit:                             ; preds = %7, %12
  %13 = getelementptr inbounds nuw i8, ptr %5, i64 40
  store i64 2048, ptr %13, align 8, !tbaa !14
  %14 = load i32, ptr @ossl_kdf_pbkdf2_default_checks, align 4, !tbaa !15
  %15 = getelementptr inbounds nuw i8, ptr %5, i64 72
  store i32 %14, ptr %15, align 8, !tbaa !16
  call void @llvm.lifetime.end.p0(i64 80, ptr nonnull %2) #7
  br label %kdf_pbkdf2_new_no_init.exit.thread

kdf_pbkdf2_new_no_init.exit.thread:               ; preds = %4, %1, %kdf_pbkdf2_init.exit
  %.0.i7 = phi ptr [ %5, %kdf_pbkdf2_init.exit ], [ null, %1 ], [ null, %4 ]
  ret ptr %.0.i7
}